target datalayout = "e-m:e-p270:32:32-p271:32:32-p272:64:64-i64:64-i128:128-f80:128-n8:16:32:64-S128"
target triple = "x86_64-pc-linux-gnu"

@__const._ZN26testApproxTopk_COMMON_Test8TestBodyEv.kValues = private unnamed_addr constant [8 x i32] [i32 1, i32 2, i32 3, i32 5, i32 8, i32 13, i32 21, i32 34], align 16

; Function Attrs: mustprogress uwtable
define dso_local void @_ZN26testApproxTopk_COMMON_Test8TestBodyEv(ptr noundef nonnull align 8 dereferenceable(16) %0) unnamed_addr #3 align 2 {
  %2 = alloca ptr, align 8
  %3 = alloca i8, align 1
  %4 = alloca i32, align 4
  %5 = alloca [8 x i32], align 16
  %6 = alloca i64, align 8
  %7 = alloca i32, align 4
  %8 = alloca i32, align 4
  %9 = alloca ptr, align 8
  %10 = alloca ptr, align 8
  %11 = alloca ptr, align 8
  %12 = alloca i32, align 4
  store ptr %0, ptr %2, align 8, !tbaa !5
  call void @llvm.lifetime.start.p0(i64 1, ptr %3) #5
  store i8 0, ptr %3, align 1, !tbaa !10
  call void @llvm.lifetime.start.p0(i64 4, ptr %4) #5
  store i32 8, ptr %4, align 4, !tbaa !12
  call void @llvm.lifetime.start.p0(i64 32, ptr %5) #5
  call void @llvm.memcpy.p0.p0.i64(ptr align 16 %5, ptr align 16 @__const._ZN26testApproxTopk_COMMON_Test8TestBodyEv.kValues, i64 32, i1 false)
  call void @llvm.lifetime.start.p0(i64 8, ptr %6) #5
  store i64 8, ptr %6, align 8, !tbaa !14
  br label %13

13:                                               ; preds = %58, %1
  %14 = load i64, ptr %6, align 8, !tbaa !14
  %15 = icmp ule i64 %14, 10
  br i1 %15, label %17, label %16

16:                                               ; preds = %13
  store i32 2, ptr %7, align 4
  call void @llvm.lifetime.end.p0(i64 8, ptr %6) #5
  br label %61

17:                                               ; preds = %13
  call void @llvm.lifetime.start.p0(i64 4, ptr %8) #5
  %18 = load i64, ptr %6, align 8, !tbaa !14
  %19 = trunc i64 %18 to i32
  %20 = shl i32 1, %19
  store i32 %20, ptr %8, align 4, !tbaa !12
  call void @llvm.lifetime.start.p0(i64 8, ptr %9) #5
  store ptr %5, ptr %9, align 8, !tbaa !16
  call void @llvm.lifetime.start.p0(i64 8, ptr %10) #5
  %21 = load ptr, ptr %9, align 8, !tbaa !16
  %22 = getelementptr inbounds [8 x i32], ptr %21, i64 0, i64 0
  store ptr %22, ptr %10, align 8, !tbaa !16
  call void @llvm.lifetime.start.p0(i64 8, ptr %11) #5
  %23 = load ptr, ptr %9, align 8, !tbaa !16
  %24 = getelementptr inbounds [8 x i32], ptr %23, i64 0, i64 0
  %25 = getelementptr inbounds i32, ptr %24, i64 8
  store ptr %25, ptr %11, align 8, !tbaa !16
  br label %26

26:                                               ; preds = %54, %17
  %27 = load ptr, ptr %10, align 8, !tbaa !16
  %28 = load ptr, ptr %11, align 8, !tbaa !16
  %29 = icmp ne ptr %27, %28
  br i1 %29, label %31, label %30

30:                                               ; preds = %26
  store i32 5, ptr %7, align 4
  call void @llvm.lifetime.end.p0(i64 8, ptr %11) #5
  call void @llvm.lifetime.end.p0(i64 8, ptr %10) #5
  call void @llvm.lifetime.end.p0(i64 8, ptr %9) #5
  br label %57

31:                                               ; preds = %26
  call void @llvm.lifetime.start.p0(i64 4, ptr %12) #5
  %32 = load ptr, ptr %10, align 8, !tbaa !16
  %33 = load i32, ptr %32, align 4, !tbaa !12
  store i32 %33, ptr %12, align 4, !tbaa !12
  %34 = load i32, ptr %8, align 4, !tbaa !12
  %35 = load i32, ptr %12, align 4, !tbaa !12
  call void @_Z16test_approx_topkILj8ELj3EEvjjjjb(i32 noundef 1, i32 noundef %34, i32 noundef %35, i32 noundef 8, i1 noundef zeroext false)
  %36 = load i32, ptr %12, align 4, !tbaa !12
  %37 = load i32, ptr %8, align 4, !tbaa !12
  %38 = load i32, ptr %12, align 4, !tbaa !12
  call void @_Z16test_approx_topkILj8ELj3EEvjjjjb(i32 noundef %36, i32 noundef %37, i32 noundef %38, i32 noundef 8, i1 noundef zeroext false)
  %39 = load i32, ptr %8, align 4, !tbaa !12
  %40 = load i32, ptr %12, align 4, !tbaa !12
  call void @_Z16test_approx_topkILj8ELj2EEvjjjjb(i32 noundef 1, i32 noundef %39, i32 noundef %40, i32 noundef 8, i1 noundef zeroext false)
  %41 = load i32, ptr %12, align 4, !tbaa !12
  %42 = load i32, ptr %8, align 4, !tbaa !12
  %43 = load i32, ptr %12, align 4, !tbaa !12
  call void @_Z16test_approx_topkILj8ELj2EEvjjjjb(i32 noundef %41, i32 noundef %42, i32 noundef %43, i32 noundef 8, i1 noundef zeroext false)
  %44 = load i32, ptr %8, align 4, !tbaa !12
  %45 = load i32, ptr %12, align 4, !tbaa !12
  call void @_Z16test_approx_topkILj16ELj2EEvjjjjb(i32 noundef 1, i32 noundef %44, i32 noundef %45, i32 noundef 8, i1 noundef zeroext false)
  %46 = load i32, ptr %12, align 4, !tbaa !12
  %47 = load i32, ptr %8, align 4, !tbaa !12
  %48 = load i32, ptr %12, align 4, !tbaa !12
  call void @_Z16test_approx_topkILj16ELj2EEvjjjjb(i32 noundef %46, i32 noundef %47, i32 noundef %48, i32 noundef 8, i1 noundef zeroext false)
  %49 = load i32, ptr %8, align 4, !tbaa !12
  %50 = load i32, ptr %12, align 4, !tbaa !12
  call void @_Z16test_approx_topkILj32ELj2EEvjjjjb(i32 noundef 1, i32 noundef %49, i32 noundef %50, i32 noundef 8, i1 noundef zeroext false)
  %51 = load i32, ptr %12, align 4, !tbaa !12
  %52 = load i32, ptr %8, align 4, !tbaa !12
  %53 = load i32, ptr %12, align 4, !tbaa !12
  call void @_Z16test_approx_topkILj32ELj2EEvjjjjb(i32 noundef %51, i32 noundef %52, i32 noundef %53, i32 noundef 8, i1 noundef zeroext false)
  call void @llvm.lifetime.end.p0(i64 4, ptr %12) #5
  br label %54

54:                                               ; preds = %31
  %55 = load ptr, ptr %10, align 8, !tbaa !16
  %56 = getelementptr inbounds nuw i32, ptr %55, i32 1
  store ptr %56, ptr %10, align 8, !tbaa !16
  br label %26

57:                                               ; preds = %30
  call void @llvm.lifetime.end.p0(i64 4, ptr %8) #5
  br label %58

58:                                               ; preds = %57
  %59 = load i64, ptr %6, align 8, !tbaa !14
  %60 = add i64 %59, 1
  store i64 %60, ptr %6, align 8, !tbaa !14
  br label %13, !llvm.loop !18

61:                                               ; preds = %16
  call void @llvm.lifetime.end.p0(i64 32, ptr %5) #5
  call void @llvm.lifetime.end.p0(i64 4, ptr %4) #5
  call void @llvm.lifetime.end.p0(i64 1, ptr %3) #5
  ret void
}