; Function Attrs: mustprogress uwtable
define dso_local void @_ZN26testApproxTopk_COMMON_Test8TestBodyEv(ptr nonnull readnone align 8 captures(none) %0) unnamed_addr #3 align 2 {
  br label %3

2:                                                ; preds = %6
  ret void

3:                                                ; preds = %1, %6
  %.030 = phi i64 [ 8, %1 ], [ %7, %6 ]
  %4 = trunc nuw nsw i64 %.030 to i32
  %5 = shl nuw nsw i32 1, %4
  br label %8

6:                                                ; preds = %8
  %7 = add nuw nsw i64 %.030, 1
  %exitcond.not = icmp eq i64 %7, 11
  br i1 %exitcond.not, label %2, label %3, !llvm.loop !5

8:                                                ; preds = %3, %8
  %.028.idx29 = phi i64 [ 0, %3 ], [ %.028.add, %8 ]
  %.028.ptr = getelementptr inbounds nuw i8, ptr @__const._ZN26testApproxTopk_COMMON_Test8TestBodyEv.kValues, i64 %.028.idx29
  %9 = load i32, ptr %.028.ptr, align 4, !tbaa !7
  tail call void @_Z16test_approx_topkILj8ELj3EEvjjjjb(i32 noundef 1, i32 noundef %5, i32 noundef %9, i32 noundef 8, i1 noundef zeroext false)
  tail call void @_Z16test_approx_topkILj8ELj3EEvjjjjb(i32 noundef %9, i32 noundef %5, i32 noundef %9, i32 noundef 8, i1 noundef zeroext false)
  tail call void @_Z16test_approx_topkILj8ELj2EEvjjjjb(i32 noundef 1, i32 noundef %5, i32 noundef %9, i32 noundef 8, i1 noundef zeroext false)
  tail call void @_Z16test_approx_topkILj8ELj2EEvjjjjb(i32 noundef %9, i32 noundef %5, i32 noundef %9, i32 noundef 8, i1 noundef zeroext false)
  tail call void @_Z16test_approx_topkILj16ELj2EEvjjjjb(i32 noundef 1, i32 noundef %5, i32 noundef %9, i32 noundef 8, i1 noundef zeroext false)
  tail call void @_Z16test_approx_topkILj16ELj2EEvjjjjb(i32 noundef %9, i32 noundef %5, i32 noundef %9, i32 noundef 8, i1 noundef zeroext false)
  tail call void @_Z16test_approx_topkILj32ELj2EEvjjjjb(i32 noundef 1, i32 noundef %5, i32 noundef %9, i32 noundef 8, i1 noundef zeroext false)
  tail call void @_Z16test_approx_topkILj32ELj2EEvjjjjb(i32 noundef %9, i32 noundef %5, i32 noundef %9, i32 noundef 8, i1 noundef zeroext false)
  %.028.add = add nuw nsw i64 %.028.idx29, 4
  %.not = icmp eq i64 %.028.add, 32
  br i1 %.not, label %6, label %8
}